target datalayout = "e-m:e-p270:32:32-p271:32:32-p272:64:64-i64:64-i128:128-f80:128-n8:16:32:64-S128"
target triple = "x86_64-pc-linux-gnu"

%struct._DlsMat = type { i32, i64, i64, i64, i64, i64, i64, ptr, i64, ptr }

; Function Attrs: nounwind uwtable
define i64 @BandGBTRF(ptr noundef %0, ptr noundef %1) #0 {
  %3 = alloca ptr, align 8
  %4 = alloca ptr, align 8
  store ptr %0, ptr %3, align 8, !tbaa !3
  store ptr %1, ptr %4, align 8, !tbaa !8
  %5 = load ptr, ptr %3, align 8, !tbaa !3
  %6 = getelementptr inbounds nuw %struct._DlsMat, ptr %5, i32 0, i32 9
  %7 = load ptr, ptr %6, align 8, !tbaa !10
  %8 = load ptr, ptr %3, align 8, !tbaa !3
  %9 = getelementptr inbounds nuw %struct._DlsMat, ptr %8, i32 0, i32 1
  %10 = load i64, ptr %9, align 8, !tbaa !16
  %11 = load ptr, ptr %3, align 8, !tbaa !3
  %12 = getelementptr inbounds nuw %struct._DlsMat, ptr %11, i32 0, i32 4
  %13 = load i64, ptr %12, align 8, !tbaa !17
  %14 = load ptr, ptr %3, align 8, !tbaa !3
  %15 = getelementptr inbounds nuw %struct._DlsMat, ptr %14, i32 0, i32 5
  %16 = load i64, ptr %15, align 8, !tbaa !18
  %17 = load ptr, ptr %3, align 8, !tbaa !3
  %18 = getelementptr inbounds nuw %struct._DlsMat, ptr %17, i32 0, i32 6
  %19 = load i64, ptr %18, align 8, !tbaa !19
  %20 = load ptr, ptr %4, align 8, !tbaa !8
  %21 = call i64 @bandGBTRF(ptr noundef %7, i64 noundef %10, i64 noundef %13, i64 noundef %16, i64 noundef %19, ptr noundef %20)
  ret i64 %21
}